target datalayout = "e-m:e-p270:32:32-p271:32:32-p272:64:64-i64:64-i128:128-f80:128-n8:16:32:64-S128"
target triple = "x86_64-pc-linux-gnu"

%struct.Abc_Ntk_t_ = type { i32, i32, ptr, ptr, ptr, ptr, ptr, ptr, ptr, ptr, ptr, ptr, ptr, [11 x i32], i32, i32, i32, i32, ptr, i32, ptr, ptr, i32, i32, i32, double, i32, %struct.Vec_Int_t_, ptr, ptr, ptr, ptr, ptr, float, i32, ptr, ptr, ptr, ptr, ptr, ptr, ptr, ptr, ptr, ptr, ptr, ptr, ptr, ptr, ptr, ptr, ptr, ptr, ptr, ptr, ptr }
%struct.Vec_Int_t_ = type { i32, i32, ptr }
%struct.Abc_Obj_t_ = type { ptr, ptr, i32, i32, %struct.Vec_Int_t_, %struct.Vec_Int_t_, %union.anon, %union.anon.0 }
%union.anon = type { ptr }
%union.anon.0 = type { ptr }

; Function Attrs: nounwind uwtable
define internal i32 @Vec_IntEntry(ptr noundef %0, i32 noundef %1) #0 {
  %3 = alloca ptr, align 8
  %4 = alloca i32, align 4
  store ptr %0, ptr %3, align 8
  store i32 %1, ptr %4, align 4
  %5 = load ptr, ptr %3, align 8
  %6 = getelementptr inbounds %struct.Vec_Int_t_, ptr %5, i32 0, i32 2
  %7 = load ptr, ptr %6, align 8
  %8 = load i32, ptr %4, align 4
  %9 = sext i32 %8 to i64
  %10 = getelementptr inbounds i32, ptr %7, i64 %9
  %11 = load i32, ptr %10, align 4
  ret i32 %11
}

; Function Attrs: nounwind uwtable
define i32 @Abc_ObjReverseLevel(ptr noundef %0) #0 {
  %2 = alloca ptr, align 8
  %3 = alloca ptr, align 8
  store ptr %0, ptr %2, align 8
  %4 = load ptr, ptr %2, align 8
  %5 = getelementptr inbounds %struct.Abc_Obj_t_, ptr %4, i32 0, i32 0
  %6 = load ptr, ptr %5, align 8
  store ptr %6, ptr %3, align 8
  %7 = load ptr, ptr %3, align 8
  %8 = getelementptr inbounds %struct.Abc_Ntk_t_, ptr %7, i32 0, i32 35
  %9 = load ptr, ptr %8, align 8
  %10 = load ptr, ptr %2, align 8
  %11 = getelementptr inbounds %struct.Abc_Obj_t_, ptr %10, i32 0, i32 2
  %12 = load i32, ptr %11, align 8
  %13 = add nsw i32 %12, 1
  call void @Vec_IntFillExtra(ptr noundef %9, i32 noundef %13, i32 noundef 0)
  %14 = load ptr, ptr %3, align 8
  %15 = getelementptr inbounds %struct.Abc_Ntk_t_, ptr %14, i32 0, i32 35
  %16 = load ptr, ptr %15, align 8
  %17 = load ptr, ptr %2, align 8
  %18 = getelementptr inbounds %struct.Abc_Obj_t_, ptr %17, i32 0, i32 2
  %19 = load i32, ptr %18, align 8
  %20 = call i32 @Vec_IntEntry(ptr noundef %16, i32 noundef %19)
  ret i32 %20
}

; Function Attrs: nounwind uwtable
define i32 @Abc_ObjRequiredLevel(ptr noundef %0) #0 {
  %2 = alloca ptr, align 8
  %3 = alloca ptr, align 8
  store ptr %0, ptr %2, align 8
  %4 = load ptr, ptr %2, align 8
  %5 = getelementptr inbounds %struct.Abc_Obj_t_, ptr %4, i32 0, i32 0
  %6 = load ptr, ptr %5, align 8
  store ptr %6, ptr %3, align 8
  %7 = load ptr, ptr %3, align 8
  %8 = getelementptr inbounds %struct.Abc_Ntk_t_, ptr %7, i32 0, i32 34
  %9 = load i32, ptr %8, align 4
  %10 = add nsw i32 %9, 1
  %11 = load ptr, ptr %2, align 8
  %12 = call i32 @Abc_ObjReverseLevel(ptr noundef %11)
  %13 = sub nsw i32 %10, %12
  ret i32 %13
}