; Function Attrs: nounwind uwtable
define i32 @Abc_ObjRequiredLevel(ptr noundef readonly captures(none) %0) local_unnamed_addr #3 {
  %2 = load ptr, ptr %0, align 8
  %3 = getelementptr inbounds nuw i8, ptr %2, i64 284
  %4 = load i32, ptr %3, align 4
  %5 = add nsw i32 %4, 1
  %6 = getelementptr inbounds nuw i8, ptr %2, i64 288
  %7 = load ptr, ptr %6, align 8
  %8 = getelementptr inbounds nuw i8, ptr %0, i64 16
  %9 = load i32, ptr %8, align 8
  %10 = add nsw i32 %9, 1
  tail call fastcc void @Vec_IntFillExtra(ptr noundef %7, i32 noundef %10)
  %11 = load ptr, ptr %6, align 8
  %12 = load i32, ptr %8, align 8
  %13 = getelementptr i8, ptr %11, i64 8
  %.val.i = load ptr, ptr %13, align 8
  %14 = sext i32 %12 to i64
  %15 = getelementptr inbounds i32, ptr %.val.i, i64 %14
  %16 = load i32, ptr %15, align 4
  %17 = sub i32 %5, %16
  ret i32 %17
}